target datalayout = "e-m:e-p270:32:32-p271:32:32-p272:64:64-i64:64-i128:128-f80:128-n8:16:32:64-S128"
target triple = "x86_64-pc-linux-gnu"

%struct.strvec = type { ptr, i64, i64 }
%struct.strbuf = type { i64, i64, ptr }
%struct.object_id = type { [32 x i8], i32 }
%struct.rev_info = type { ptr, %struct.object_array, ptr, %struct.object_array, %struct.rev_cmdline_info, %struct.list_objects_filter_options, %struct.ref_exclusions, ptr, ptr, ptr, %struct.pathspec, i32, i32, i32, i32, i64, i32, i32, %struct.date_mode, i32, i32, i32, i32, ptr, i32, i32, ptr, ptr, i32, ptr, ptr, %struct.ident_split, ptr, i32, ptr, ptr, ptr, i32, i32, i32, ptr, %struct.grep_opt, ptr, i32, i32, i64, i64, i64, i32, i32, ptr, ptr, ptr, %struct.diff_options, %struct.diff_options, ptr, %struct.decoration, %struct.decoration, %struct.decoration, %struct.display_notes_opt, ptr, ptr, ptr, ptr, ptr, i32, ptr, i32, i32, i32, %struct.decoration, ptr, ptr, ptr, ptr, ptr, ptr, ptr, i32, ptr, i32, ptr, %struct.oidset }
%struct.object_array = type { i32, i32, ptr }
%struct.rev_cmdline_info = type { i32, i32, ptr }
%struct.list_objects_filter_options = type { %struct.strbuf, i32, i8, ptr, i64, i64, i32, i64, i64, ptr }
%struct.ref_exclusions = type { %struct.string_list, %struct.strvec, i8 }
%struct.string_list = type { ptr, i64, i64, i8, ptr }
%struct.pathspec = type { i32, i8, i32, i32, ptr }
%struct.date_mode = type { i32, i32, ptr }
%struct.ident_split = type { ptr, ptr, ptr, ptr, ptr, ptr, ptr, ptr }
%struct.grep_opt = type { ptr, ptr, ptr, ptr, ptr, ptr, i32, i32, i32, i32, i32, i32, i32, i32, i32, i32, i32, i32, i32, i32, i32, i32, i32, i32, i32, i32, i32, i32, i32, i32, i32, i32, [9 x [75 x i8]], i32, i32, i32, i32, i32, i32, i32, ptr, ptr, ptr }
%struct.diff_options = type { ptr, ptr, i32, i32, ptr, i32, ptr, i64, i64, ptr, ptr, ptr, ptr, %struct.diff_flags, i32, i32, i32, i32, i32, i32, i32, i32, i32, i32, i32, i32, i32, i32, i32, i32, i32, i32, i32, i32, i32, i32, ptr, i32, ptr, i32, i32, ptr, i64, i64, i32, i32, i32, i32, ptr, i32, i32, ptr, i32, i32, ptr, ptr, i32, [3 x i8], %struct.pathspec, ptr, ptr, ptr, ptr, ptr, ptr, ptr, ptr, i32, ptr, i32, i32, ptr, ptr, i32 }
%struct.diff_flags = type { i32, i32, i32, i32, i32, i32, i32, i32, i32, i32, i32, i32, i32, i32, i32, i32, i32, i32, i32, i32, i32, i32, i32, i32, i32, i32, i32, i32, i32, i32, i32, i32, i32, i32, i32 }
%struct.display_notes_opt = type { i32, %struct.string_list }
%struct.decoration = type { ptr, i32, i32, ptr }
%struct.oidset = type { %struct.kh_oid_set }
%struct.kh_oid_set = type { i32, i32, i32, i32, ptr, ptr, ptr }

@the_repository = external global ptr, align 8
@.str.94 = private unnamed_addr constant [5 x i8] c"HEAD\00", align 1

; Function Attrs: nounwind uwtable
define internal i32 @check_changes_tracked_files(ptr noundef %0) #0 {
  %2 = alloca i32, align 4
  %3 = alloca ptr, align 8
  %4 = alloca %struct.rev_info, align 8
  %5 = alloca %struct.object_id, align 4
  %6 = alloca i32, align 4
  %7 = alloca i32, align 4
  store ptr %0, ptr %3, align 8, !tbaa !189
  call void @llvm.lifetime.start.p0(i64 3008, ptr %4) #9
  call void @llvm.lifetime.start.p0(i64 36, ptr %5) #9
  call void @llvm.lifetime.start.p0(i64 4, ptr %6) #9
  store i32 0, ptr %6, align 4, !tbaa !4
  %8 = load ptr, ptr @the_repository, align 8, !tbaa !13
  %9 = call i32 @repo_get_oid(ptr noundef %8, ptr noundef @.str.94, ptr noundef %5)
  %10 = icmp ne i32 %9, 0
  br i1 %10, label %11, label %12

11:                                               ; preds = %1
  store i32 -1, ptr %2, align 4
  store i32 1, ptr %7, align 4
  br label %39

12:                                               ; preds = %1
  %13 = load ptr, ptr @the_repository, align 8, !tbaa !13
  %14 = call i32 @repo_read_index(ptr noundef %13)
  %15 = icmp slt i32 %14, 0
  br i1 %15, label %16, label %17

16:                                               ; preds = %12
  store i32 -1, ptr %2, align 4
  store i32 1, ptr %7, align 4
  br label %39

17:                                               ; preds = %12
  %18 = load ptr, ptr @the_repository, align 8, !tbaa !13
  call void @repo_init_revisions(ptr noundef %18, ptr noundef %4, ptr noundef null)
  %19 = getelementptr inbounds nuw %struct.rev_info, ptr %4, i32 0, i32 10
  %20 = load ptr, ptr %3, align 8, !tbaa !189
  call void @copy_pathspec(ptr noundef %19, ptr noundef %20)
  %21 = getelementptr inbounds nuw %struct.rev_info, ptr %4, i32 0, i32 53
  %22 = getelementptr inbounds nuw %struct.diff_options, ptr %21, i32 0, i32 13
  %23 = getelementptr inbounds nuw %struct.diff_flags, ptr %22, i32 0, i32 10
  store i32 1, ptr %23, align 8, !tbaa !190
  %24 = getelementptr inbounds nuw %struct.rev_info, ptr %4, i32 0, i32 53
  %25 = getelementptr inbounds nuw %struct.diff_options, ptr %24, i32 0, i32 13
  %26 = getelementptr inbounds nuw %struct.diff_flags, ptr %25, i32 0, i32 17
  store i32 1, ptr %26, align 4, !tbaa !191
  %27 = getelementptr inbounds nuw %struct.rev_info, ptr %4, i32 0, i32 21
  store i32 0, ptr %27, align 8, !tbaa !192
  call void @add_head_to_pending(ptr noundef %4)
  %28 = getelementptr inbounds nuw %struct.rev_info, ptr %4, i32 0, i32 53
  call void @diff_setup_done(ptr noundef %28)
  call void @run_diff_index(ptr noundef %4, i32 noundef 1)
  %29 = call i32 @diff_result_code(ptr noundef %4)
  %30 = icmp ne i32 %29, 0
  br i1 %30, label %31, label %32

31:                                               ; preds = %17
  store i32 1, ptr %6, align 4, !tbaa !4
  br label %37

32:                                               ; preds = %17
  call void @run_diff_files(ptr noundef %4, i32 noundef 0)
  %33 = call i32 @diff_result_code(ptr noundef %4)
  %34 = icmp ne i32 %33, 0
  br i1 %34, label %35, label %36

35:                                               ; preds = %32
  store i32 1, ptr %6, align 4, !tbaa !4
  br label %37

36:                                               ; preds = %32
  br label %37

37:                                               ; preds = %36, %35, %31
  call void @release_revisions(ptr noundef %4)
  %38 = load i32, ptr %6, align 4, !tbaa !4
  store i32 %38, ptr %2, align 4
  store i32 1, ptr %7, align 4
  br label %39

39:                                               ; preds = %37, %16, %11
  call void @llvm.lifetime.end.p0(i64 4, ptr %6) #9
  call void @llvm.lifetime.end.p0(i64 36, ptr %5) #9
  call void @llvm.lifetime.end.p0(i64 3008, ptr %4) #9
  %40 = load i32, ptr %2, align 4
  ret i32 %40
}