; Function Attrs: nounwind uwtable
define internal fastcc range(i32 -1, 2) i32 @check_changes_tracked_files(ptr noundef nonnull %0) unnamed_addr #0 {
  %2 = alloca %struct.rev_info, align 8
  %3 = alloca %struct.object_id, align 4
  call void @llvm.lifetime.start.p0(i64 3008, ptr nonnull %2) #15
  call void @llvm.lifetime.start.p0(i64 36, ptr nonnull %3) #15
  %4 = load ptr, ptr @the_repository, align 8, !tbaa !18
  %5 = call i32 @repo_get_oid(ptr noundef %4, ptr noundef nonnull @.str.94, ptr noundef nonnull %3) #15
  %.not = icmp eq i32 %5, 0
  br i1 %.not, label %6, label %21

6:                                                ; preds = %1
  %7 = load ptr, ptr @the_repository, align 8, !tbaa !18
  %8 = call i32 @repo_read_index(ptr noundef %7) #15
  %9 = icmp slt i32 %8, 0
  br i1 %9, label %21, label %10

10:                                               ; preds = %6
  %11 = load ptr, ptr @the_repository, align 8, !tbaa !18
  call void @repo_init_revisions(ptr noundef %11, ptr noundef nonnull %2, ptr noundef null) #15
  %12 = getelementptr inbounds nuw i8, ptr %2, i64 248
  call void @copy_pathspec(ptr noundef nonnull %12, ptr noundef nonnull %0) #15
  %13 = getelementptr inbounds nuw i8, ptr %2, i64 1472
  %14 = getelementptr inbounds nuw i8, ptr %2, i64 1608
  store i32 1, ptr %14, align 8, !tbaa !168
  %15 = getelementptr inbounds nuw i8, ptr %2, i64 1636
  store i32 1, ptr %15, align 4, !tbaa !169
  %16 = getelementptr inbounds nuw i8, ptr %2, i64 328
  store i32 0, ptr %16, align 8, !tbaa !170
  call void @add_head_to_pending(ptr noundef nonnull %2) #15
  call void @diff_setup_done(ptr noundef nonnull %13) #15
  call void @run_diff_index(ptr noundef nonnull %2, i32 noundef 1) #15
  %17 = call i32 @diff_result_code(ptr noundef nonnull %2) #15
  %.not3 = icmp eq i32 %17, 0
  br i1 %.not3, label %18, label %20

18:                                               ; preds = %10
  call void @run_diff_files(ptr noundef nonnull %2, i32 noundef 0) #15
  %19 = call i32 @diff_result_code(ptr noundef nonnull %2) #15
  %.not4 = icmp ne i32 %19, 0
  %spec.select = zext i1 %.not4 to i32
  br label %20

20:                                               ; preds = %18, %10
  %.0 = phi i32 [ 1, %10 ], [ %spec.select, %18 ]
  call void @release_revisions(ptr noundef nonnull %2) #15
  br label %21

21:                                               ; preds = %6, %1, %20
  %.02 = phi i32 [ %.0, %20 ], [ -1, %1 ], [ -1, %6 ]
  call void @llvm.lifetime.end.p0(i64 36, ptr nonnull %3) #15
  call void @llvm.lifetime.end.p0(i64 3008, ptr nonnull %2) #15
  ret i32 %.02
}